; Function Attrs: nounwind uwtable
define ptr @EVP_PKEY_settable_params(ptr noundef readonly captures(address_is_null) %0) local_unnamed_addr #0 {
  %.not = icmp eq ptr %0, null
  br i1 %.not, label %7, label %2

2:                                                ; preds = %1
  %3 = getelementptr inbounds nuw i8, ptr %0, i64 96
  %4 = load ptr, ptr %3, align 8, !tbaa !30
  %.not4 = icmp eq ptr %4, null
  br i1 %.not4, label %7, label %5

5:                                                ; preds = %2
  %6 = tail call ptr @EVP_KEYMGMT_settable_params(ptr noundef nonnull %4) #12
  br label %7

7:                                                ; preds = %1, %2, %5
  %8 = phi ptr [ %6, %5 ], [ null, %2 ], [ null, %1 ]
  ret ptr %8
}